target datalayout = "e-m:e-p270:32:32-p271:32:32-p272:64:64-i64:64-i128:128-f80:128-n8:16:32:64-S128"
target triple = "x86_64-pc-linux-gnu"

%struct.Abc_Cex_t_ = type { i32, i32, i32, i32, i32, [0 x i32] }

; Function Attrs: inlinehint nounwind uwtable
define internal i32 @Abc_BitWordNum(i32 noundef %0) #2 {
  %2 = alloca i32, align 4
  store i32 %0, ptr %2, align 4, !tbaa !3
  %3 = load i32, ptr %2, align 4, !tbaa !3
  %4 = ashr i32 %3, 5
  %5 = load i32, ptr %2, align 4, !tbaa !3
  %6 = and i32 %5, 31
  %7 = icmp sgt i32 %6, 0
  %8 = zext i1 %7 to i32
  %9 = add nsw i32 %4, %8
  ret i32 %9
}

; Function Attrs: inlinehint nounwind uwtable
define internal void @Abc_InfoSetBit(ptr noundef %0, i32 noundef %1) #2 {
  %3 = alloca ptr, align 8
  %4 = alloca i32, align 4
  store ptr %0, ptr %3, align 8, !tbaa !16
  store i32 %1, ptr %4, align 4, !tbaa !3
  %5 = load i32, ptr %4, align 4, !tbaa !3
  %6 = and i32 %5, 31
  %7 = shl i32 1, %6
  %8 = load ptr, ptr %3, align 8, !tbaa !16
  %9 = load i32, ptr %4, align 4, !tbaa !3
  %10 = ashr i32 %9, 5
  %11 = sext i32 %10 to i64
  %12 = getelementptr inbounds i32, ptr %8, i64 %11
  %13 = load i32, ptr %12, align 4, !tbaa !3
  %14 = or i32 %13, %7
  store i32 %14, ptr %12, align 4, !tbaa !3
  ret void
}

; Function Attrs: nounwind uwtable
define ptr @Abc_CexAlloc(i32 noundef %0, i32 noundef %1, i32 noundef %2) #0 {
  %4 = alloca i32, align 4
  %5 = alloca i32, align 4
  %6 = alloca i32, align 4
  %7 = alloca ptr, align 8
  %8 = alloca i32, align 4
  store i32 %0, ptr %4, align 4, !tbaa !3
  store i32 %1, ptr %5, align 4, !tbaa !3
  store i32 %2, ptr %6, align 4, !tbaa !3
  call void @llvm.lifetime.start.p0(i64 8, ptr %7) #8
  call void @llvm.lifetime.start.p0(i64 4, ptr %8) #8
  %9 = load i32, ptr %4, align 4, !tbaa !3
  %10 = load i32, ptr %5, align 4, !tbaa !3
  %11 = load i32, ptr %6, align 4, !tbaa !3
  %12 = mul nsw i32 %10, %11
  %13 = add nsw i32 %9, %12
  %14 = call i32 @Abc_BitWordNum(i32 noundef %13)
  store i32 %14, ptr %8, align 4, !tbaa !3
  %15 = load i32, ptr %8, align 4, !tbaa !3
  %16 = sext i32 %15 to i64
  %17 = mul i64 4, %16
  %18 = add i64 20, %17
  %19 = mul i64 1, %18
  %20 = call noalias ptr @malloc(i64 noundef %19) #9
  store ptr %20, ptr %7, align 8, !tbaa !7
  %21 = load ptr, ptr %7, align 8, !tbaa !7
  %22 = load i32, ptr %8, align 4, !tbaa !3
  %23 = sext i32 %22 to i64
  %24 = mul i64 4, %23
  %25 = add i64 20, %24
  call void @llvm.memset.p0.i64(ptr align 4 %21, i8 0, i64 %25, i1 false)
  %26 = load i32, ptr %4, align 4, !tbaa !3
  %27 = load ptr, ptr %7, align 8, !tbaa !7
  %28 = getelementptr inbounds nuw %struct.Abc_Cex_t_, ptr %27, i32 0, i32 2
  store i32 %26, ptr %28, align 4, !tbaa !10
  %29 = load i32, ptr %5, align 4, !tbaa !3
  %30 = load ptr, ptr %7, align 8, !tbaa !7
  %31 = getelementptr inbounds nuw %struct.Abc_Cex_t_, ptr %30, i32 0, i32 3
  store i32 %29, ptr %31, align 4, !tbaa !12
  %32 = load i32, ptr %4, align 4, !tbaa !3
  %33 = load i32, ptr %5, align 4, !tbaa !3
  %34 = load i32, ptr %6, align 4, !tbaa !3
  %35 = mul nsw i32 %33, %34
  %36 = add nsw i32 %32, %35
  %37 = load ptr, ptr %7, align 8, !tbaa !7
  %38 = getelementptr inbounds nuw %struct.Abc_Cex_t_, ptr %37, i32 0, i32 4
  store i32 %36, ptr %38, align 4, !tbaa !13
  %39 = load ptr, ptr %7, align 8, !tbaa !7
  call void @llvm.lifetime.end.p0(i64 4, ptr %8) #8
  call void @llvm.lifetime.end.p0(i64 8, ptr %7) #8
  ret ptr %39
}

; Function Attrs: nounwind uwtable
define ptr @Abc_CexCreate(i32 noundef %0, i32 noundef %1, ptr noundef %2, i32 noundef %3, i32 noundef %4, i32 noundef %5) #0 {
  %7 = alloca ptr, align 8
  %8 = alloca i32, align 4
  %9 = alloca i32, align 4
  %10 = alloca ptr, align 8
  %11 = alloca i32, align 4
  %12 = alloca i32, align 4
  %13 = alloca i32, align 4
  %14 = alloca ptr, align 8
  %15 = alloca i32, align 4
  %16 = alloca i32, align 4
  store i32 %0, ptr %8, align 4, !tbaa !3
  store i32 %1, ptr %9, align 4, !tbaa !3
  store ptr %2, ptr %10, align 8, !tbaa !16
  store i32 %3, ptr %11, align 4, !tbaa !3
  store i32 %4, ptr %12, align 4, !tbaa !3
  store i32 %5, ptr %13, align 4, !tbaa !3
  call void @llvm.lifetime.start.p0(i64 8, ptr %14) #8
  call void @llvm.lifetime.start.p0(i64 4, ptr %15) #8
  %17 = load i32, ptr %8, align 4, !tbaa !3
  %18 = load i32, ptr %9, align 4, !tbaa !3
  %19 = load i32, ptr %11, align 4, !tbaa !3
  %20 = add nsw i32 %19, 1
  %21 = call ptr @Abc_CexAlloc(i32 noundef %17, i32 noundef %18, i32 noundef %20)
  store ptr %21, ptr %14, align 8, !tbaa !7
  %22 = load i32, ptr %12, align 4, !tbaa !3
  %23 = load ptr, ptr %14, align 8, !tbaa !7
  %24 = getelementptr inbounds nuw %struct.Abc_Cex_t_, ptr %23, i32 0, i32 0
  store i32 %22, ptr %24, align 4, !tbaa !14
  %25 = load i32, ptr %11, align 4, !tbaa !3
  %26 = load ptr, ptr %14, align 8, !tbaa !7
  %27 = getelementptr inbounds nuw %struct.Abc_Cex_t_, ptr %26, i32 0, i32 1
  store i32 %25, ptr %27, align 4, !tbaa !15
  %28 = load ptr, ptr %10, align 8, !tbaa !16
  %29 = icmp eq ptr %28, null
  br i1 %29, label %30, label %32

30:                                               ; preds = %6
  %31 = load ptr, ptr %14, align 8, !tbaa !7
  store ptr %31, ptr %7, align 8
  store i32 1, ptr %16, align 4
  br label %88

32:                                               ; preds = %6
  %33 = load i32, ptr %13, align 4, !tbaa !3
  %34 = icmp ne i32 %33, 0
  br i1 %34, label %35, label %62

35:                                               ; preds = %32
  %36 = load i32, ptr %8, align 4, !tbaa !3
  store i32 %36, ptr %15, align 4, !tbaa !3
  br label %37

37:                                               ; preds = %58, %35
  %38 = load i32, ptr %15, align 4, !tbaa !3
  %39 = load ptr, ptr %14, align 8, !tbaa !7
  %40 = getelementptr inbounds nuw %struct.Abc_Cex_t_, ptr %39, i32 0, i32 4
  %41 = load i32, ptr %40, align 4, !tbaa !13
  %42 = icmp slt i32 %38, %41
  br i1 %42, label %43, label %61

43:                                               ; preds = %37
  %44 = load ptr, ptr %10, align 8, !tbaa !16
  %45 = load i32, ptr %15, align 4, !tbaa !3
  %46 = load i32, ptr %8, align 4, !tbaa !3
  %47 = sub nsw i32 %45, %46
  %48 = sext i32 %47 to i64
  %49 = getelementptr inbounds i32, ptr %44, i64 %48
  %50 = load i32, ptr %49, align 4, !tbaa !3
  %51 = icmp ne i32 %50, 0
  br i1 %51, label %52, label %57

52:                                               ; preds = %43
  %53 = load ptr, ptr %14, align 8, !tbaa !7
  %54 = getelementptr inbounds nuw %struct.Abc_Cex_t_, ptr %53, i32 0, i32 5
  %55 = getelementptr inbounds [0 x i32], ptr %54, i64 0, i64 0
  %56 = load i32, ptr %15, align 4, !tbaa !3
  call void @Abc_InfoSetBit(ptr noundef %55, i32 noundef %56)
  br label %57

57:                                               ; preds = %52, %43
  br label %58

58:                                               ; preds = %57
  %59 = load i32, ptr %15, align 4, !tbaa !3
  %60 = add nsw i32 %59, 1
  store i32 %60, ptr %15, align 4, !tbaa !3
  br label %37, !llvm.loop !18

61:                                               ; preds = %37
  br label %86

62:                                               ; preds = %32
  store i32 0, ptr %15, align 4, !tbaa !3
  br label %63

63:                                               ; preds = %82, %62
  %64 = load i32, ptr %15, align 4, !tbaa !3
  %65 = load ptr, ptr %14, align 8, !tbaa !7
  %66 = getelementptr inbounds nuw %struct.Abc_Cex_t_, ptr %65, i32 0, i32 4
  %67 = load i32, ptr %66, align 4, !tbaa !13
  %68 = icmp slt i32 %64, %67
  br i1 %68, label %69, label %85

69:                                               ; preds = %63
  %70 = load ptr, ptr %10, align 8, !tbaa !16
  %71 = load i32, ptr %15, align 4, !tbaa !3
  %72 = sext i32 %71 to i64
  %73 = getelementptr inbounds i32, ptr %70, i64 %72
  %74 = load i32, ptr %73, align 4, !tbaa !3
  %75 = icmp ne i32 %74, 0
  br i1 %75, label %76, label %81

76:                                               ; preds = %69
  %77 = load ptr, ptr %14, align 8, !tbaa !7
  %78 = getelementptr inbounds nuw %struct.Abc_Cex_t_, ptr %77, i32 0, i32 5
  %79 = getelementptr inbounds [0 x i32], ptr %78, i64 0, i64 0
  %80 = load i32, ptr %15, align 4, !tbaa !3
  call void @Abc_InfoSetBit(ptr noundef %79, i32 noundef %80)
  br label %81

81:                                               ; preds = %76, %69
  br label %82

82:                                               ; preds = %81
  %83 = load i32, ptr %15, align 4, !tbaa !3
  %84 = add nsw i32 %83, 1
  store i32 %84, ptr %15, align 4, !tbaa !3
  br label %63, !llvm.loop !20

85:                                               ; preds = %63
  br label %86

86:                                               ; preds = %85, %61
  %87 = load ptr, ptr %14, align 8, !tbaa !7
  store ptr %87, ptr %7, align 8
  store i32 1, ptr %16, align 4
  br label %88

88:                                               ; preds = %86, %30
  call void @llvm.lifetime.end.p0(i64 4, ptr %15) #8
  call void @llvm.lifetime.end.p0(i64 8, ptr %14) #8
  %89 = load ptr, ptr %7, align 8
  ret ptr %89
}