; Function Attrs: nofree nounwind memory(readwrite, argmem: read) uwtable
define noalias noundef ptr @Abc_CexCreate(i32 noundef %0, i32 noundef %1, ptr noundef readonly %2, i32 noundef %3, i32 noundef %4, i32 noundef %5) local_unnamed_addr #3 {
  %7 = add nsw i32 %3, 1
  %8 = mul nsw i32 %7, %1
  %9 = add nsw i32 %8, %0
  %10 = ashr i32 %9, 5
  %11 = and i32 %9, 31
  %12 = icmp ne i32 %11, 0
  %13 = zext i1 %12 to i32
  %14 = add nsw i32 %10, %13
  %15 = sext i32 %14 to i64
  %16 = shl nsw i64 %15, 2
  %17 = add nsw i64 %16, 20
  %calloc.i = tail call ptr @calloc(i64 1, i64 %17)
  %18 = getelementptr inbounds nuw i8, ptr %calloc.i, i64 8
  store i32 %0, ptr %18, align 4, !tbaa !3
  %19 = getelementptr inbounds nuw i8, ptr %calloc.i, i64 12
  store i32 %1, ptr %19, align 4, !tbaa !8
  %20 = getelementptr inbounds nuw i8, ptr %calloc.i, i64 16
  store i32 %9, ptr %20, align 4, !tbaa !9
  store i32 %4, ptr %calloc.i, align 4, !tbaa !10
  %21 = getelementptr inbounds nuw i8, ptr %calloc.i, i64 4
  store i32 %3, ptr %21, align 4, !tbaa !11
  %22 = icmp eq ptr %2, null
  br i1 %22, label %.loopexit, label %23

23:                                               ; preds = %6
  %.not = icmp eq i32 %5, 0
  br i1 %.not, label %.preheader, label %.preheader31

.preheader31:                                     ; preds = %23
  %24 = icmp sgt i32 %8, 0
  br i1 %24, label %.lr.ph, label %.loopexit

.lr.ph:                                           ; preds = %.preheader31
  %25 = getelementptr inbounds nuw i8, ptr %calloc.i, i64 20
  %26 = sext i32 %0 to i64
  br label %29

.preheader:                                       ; preds = %23
  %27 = icmp sgt i32 %9, 0
  br i1 %27, label %.lr.ph35, label %.loopexit

.lr.ph35:                                         ; preds = %.preheader
  %28 = getelementptr inbounds nuw i8, ptr %calloc.i, i64 20
  %wide.trip.count = zext nneg i32 %9 to i64
  br label %47

29:                                               ; preds = %.lr.ph, %43
  %30 = phi i32 [ %9, %.lr.ph ], [ %44, %43 ]
  %indvars.iv = phi i64 [ %26, %.lr.ph ], [ %indvars.iv.next, %43 ]
  %31 = sub nsw i64 %indvars.iv, %26
  %32 = getelementptr inbounds i32, ptr %2, i64 %31
  %33 = load i32, ptr %32, align 4, !tbaa !12
  %.not30 = icmp eq i32 %33, 0
  br i1 %.not30, label %43, label %34

34:                                               ; preds = %29
  %35 = trunc nsw i64 %indvars.iv to i32
  %36 = and i32 %35, 31
  %37 = shl nuw i32 1, %36
  %38 = ashr i32 %35, 5
  %39 = sext i32 %38 to i64
  %40 = getelementptr inbounds i32, ptr %25, i64 %39
  %41 = load i32, ptr %40, align 4, !tbaa !12
  %42 = or i32 %41, %37
  store i32 %42, ptr %40, align 4, !tbaa !12
  %.pre = load i32, ptr %20, align 4, !tbaa !9
  br label %43

43:                                               ; preds = %29, %34
  %44 = phi i32 [ %30, %29 ], [ %.pre, %34 ]
  %indvars.iv.next = add nsw i64 %indvars.iv, 1
  %45 = sext i32 %44 to i64
  %46 = icmp slt i64 %indvars.iv.next, %45
  br i1 %46, label %29, label %.loopexit, !llvm.loop !13

47:                                               ; preds = %.lr.ph35, %59
  %indvars.iv38 = phi i64 [ 0, %.lr.ph35 ], [ %indvars.iv.next39, %59 ]
  %48 = getelementptr inbounds nuw i32, ptr %2, i64 %indvars.iv38
  %49 = load i32, ptr %48, align 4, !tbaa !12
  %.not29 = icmp eq i32 %49, 0
  br i1 %.not29, label %59, label %50

50:                                               ; preds = %47
  %51 = trunc nuw nsw i64 %indvars.iv38 to i32
  %52 = and i32 %51, 31
  %53 = shl nuw i32 1, %52
  %54 = lshr i64 %indvars.iv38, 5
  %55 = and i64 %54, 134217727
  %56 = getelementptr inbounds nuw i32, ptr %28, i64 %55
  %57 = load i32, ptr %56, align 4, !tbaa !12
  %58 = or i32 %57, %53
  store i32 %58, ptr %56, align 4, !tbaa !12
  br label %59

59:                                               ; preds = %47, %50
  %indvars.iv.next39 = add nuw nsw i64 %indvars.iv38, 1
  %exitcond.not = icmp eq i64 %indvars.iv.next39, %wide.trip.count
  br i1 %exitcond.not, label %.loopexit, label %47, !llvm.loop !15

.loopexit:                                        ; preds = %43, %59, %.preheader31, %.preheader, %6
  ret ptr %calloc.i
}